target datalayout = "e-m:e-p270:32:32-p271:32:32-p272:64:64-i64:64-i128:128-f80:128-n8:16:32:64-S128"
target triple = "x86_64-pc-linux-gnu"

%struct._object = type { %union.anon, ptr }
%union.anon = type { i64 }
%struct.py_hashentry_t = type { ptr, ptr, ptr, i32, i32, ptr, ptr }
%struct.anon = type { i32, i32 }
%struct._internal_name_mapper_state = type { ptr, i32 }

; Function Attrs: alwaysinline nounwind uwtable
define internal i32 @_Py_IsImmortal(ptr noundef %0) #3 {
  %2 = alloca ptr, align 8
  store ptr %0, ptr %2, align 8, !tbaa !14
  %3 = load ptr, ptr %2, align 8, !tbaa !14
  %4 = getelementptr inbounds nuw %struct._object, ptr %3, i32 0, i32 0
  %5 = getelementptr inbounds nuw %struct.anon, ptr %4, i32 0, i32 0
  %6 = load i32, ptr %5, align 8, !tbaa !28
  %7 = icmp slt i32 %6, 0
  %8 = zext i1 %7 to i32
  ret i32 %8
}

; Function Attrs: alwaysinline nounwind uwtable
define internal void @Py_DECREF(ptr noundef %0) #3 {
  %2 = alloca ptr, align 8
  store ptr %0, ptr %2, align 8, !tbaa !14
  %3 = load ptr, ptr %2, align 8, !tbaa !14
  %4 = call i32 @_Py_IsImmortal(ptr noundef %3)
  %5 = icmp ne i32 %4, 0
  br i1 %5, label %6, label %7

6:                                                ; preds = %1
  br label %16

7:                                                ; preds = %1
  %8 = load ptr, ptr %2, align 8, !tbaa !14
  %9 = getelementptr inbounds nuw %struct._object, ptr %8, i32 0, i32 0
  %10 = getelementptr inbounds nuw %struct.anon, ptr %9, i32 0, i32 0
  %11 = load i32, ptr %10, align 8, !tbaa !28
  %12 = add i32 %11, -1
  store i32 %12, ptr %10, align 8, !tbaa !28
  %13 = icmp eq i32 %12, 0
  br i1 %13, label %14, label %16

14:                                               ; preds = %7
  %15 = load ptr, ptr %2, align 8, !tbaa !14
  call void @_Py_Dealloc(ptr noundef %15)
  br label %16

16:                                               ; preds = %6, %14, %7
  ret void
}

; Function Attrs: nounwind uwtable
define internal ptr @py_digest_name(ptr noundef %0) #0 {
  %2 = alloca ptr, align 8
  %3 = alloca i32, align 4
  %4 = alloca ptr, align 8
  %5 = alloca ptr, align 8
  store ptr %0, ptr %2, align 8, !tbaa !17
  call void @llvm.lifetime.start.p0(i64 4, ptr %3) #9
  %6 = load ptr, ptr %2, align 8, !tbaa !17
  %7 = call i32 @EVP_MD_get_type(ptr noundef %6)
  store i32 %7, ptr %3, align 4, !tbaa !19
  call void @llvm.lifetime.start.p0(i64 8, ptr %4) #9
  store ptr null, ptr %4, align 8, !tbaa !21
  call void @llvm.lifetime.start.p0(i64 8, ptr %5) #9
  store ptr @py_hashes, ptr %5, align 8, !tbaa !3
  br label %8

8:                                                ; preds = %24, %1
  %9 = load ptr, ptr %5, align 8, !tbaa !3
  %10 = getelementptr inbounds nuw %struct.py_hashentry_t, ptr %9, i32 0, i32 0
  %11 = load ptr, ptr %10, align 8, !tbaa !23
  %12 = icmp ne ptr %11, null
  br i1 %12, label %13, label %27

13:                                               ; preds = %8
  %14 = load ptr, ptr %5, align 8, !tbaa !3
  %15 = getelementptr inbounds nuw %struct.py_hashentry_t, ptr %14, i32 0, i32 3
  %16 = load i32, ptr %15, align 8, !tbaa !25
  %17 = load i32, ptr %3, align 4, !tbaa !19
  %18 = icmp eq i32 %16, %17
  br i1 %18, label %19, label %23

19:                                               ; preds = %13
  %20 = load ptr, ptr %5, align 8, !tbaa !3
  %21 = getelementptr inbounds nuw %struct.py_hashentry_t, ptr %20, i32 0, i32 0
  %22 = load ptr, ptr %21, align 8, !tbaa !23
  store ptr %22, ptr %4, align 8, !tbaa !21
  br label %27

23:                                               ; preds = %13
  br label %24

24:                                               ; preds = %23
  %25 = load ptr, ptr %5, align 8, !tbaa !3
  %26 = getelementptr %struct.py_hashentry_t, ptr %25, i32 1
  store ptr %26, ptr %5, align 8, !tbaa !3
  br label %8, !llvm.loop !26

27:                                               ; preds = %19, %8
  %28 = load ptr, ptr %4, align 8, !tbaa !21
  %29 = icmp eq ptr %28, null
  br i1 %29, label %30, label %39

30:                                               ; preds = %27
  %31 = load i32, ptr %3, align 4, !tbaa !19
  %32 = call ptr @OBJ_nid2ln(i32 noundef %31)
  store ptr %32, ptr %4, align 8, !tbaa !21
  %33 = load ptr, ptr %4, align 8, !tbaa !21
  %34 = icmp eq ptr %33, null
  br i1 %34, label %35, label %38

35:                                               ; preds = %30
  %36 = load i32, ptr %3, align 4, !tbaa !19
  %37 = call ptr @OBJ_nid2sn(i32 noundef %36)
  store ptr %37, ptr %4, align 8, !tbaa !21
  br label %38

38:                                               ; preds = %35, %30
  br label %39

39:                                               ; preds = %38, %27
  %40 = load ptr, ptr %4, align 8, !tbaa !21
  %41 = call ptr @PyUnicode_FromString(ptr noundef %40)
  call void @llvm.lifetime.end.p0(i64 8, ptr %5) #9
  call void @llvm.lifetime.end.p0(i64 8, ptr %4) #9
  call void @llvm.lifetime.end.p0(i64 4, ptr %3) #9
  ret ptr %41
}

; Function Attrs: nounwind uwtable
define internal void @_openssl_hash_name_mapper(ptr noundef %0, ptr noundef %1) #0 {
  %3 = alloca ptr, align 8
  %4 = alloca ptr, align 8
  %5 = alloca ptr, align 8
  %6 = alloca ptr, align 8
  %7 = alloca i32, align 4
  store ptr %0, ptr %3, align 8, !tbaa !17
  store ptr %1, ptr %4, align 8, !tbaa !3
  call void @llvm.lifetime.start.p0(i64 8, ptr %5) #9
  %8 = load ptr, ptr %4, align 8, !tbaa !3
  store ptr %8, ptr %5, align 8, !tbaa !99
  call void @llvm.lifetime.start.p0(i64 8, ptr %6) #9
  %9 = load ptr, ptr %3, align 8, !tbaa !17
  %10 = icmp eq ptr %9, null
  br i1 %10, label %15, label %11

11:                                               ; preds = %2
  %12 = load ptr, ptr %3, align 8, !tbaa !17
  %13 = call i32 @EVP_MD_get_type(ptr noundef %12)
  %14 = icmp eq i32 %13, 0
  br i1 %14, label %15, label %16

15:                                               ; preds = %11, %2
  store i32 1, ptr %7, align 4
  br label %37

16:                                               ; preds = %11
  %17 = load ptr, ptr %3, align 8, !tbaa !17
  %18 = call ptr @py_digest_name(ptr noundef %17)
  store ptr %18, ptr %6, align 8, !tbaa !14
  %19 = load ptr, ptr %6, align 8, !tbaa !14
  %20 = icmp eq ptr %19, null
  br i1 %20, label %21, label %24

21:                                               ; preds = %16
  %22 = load ptr, ptr %5, align 8, !tbaa !99
  %23 = getelementptr inbounds nuw %struct._internal_name_mapper_state, ptr %22, i32 0, i32 1
  store i32 1, ptr %23, align 8, !tbaa !83
  br label %36

24:                                               ; preds = %16
  %25 = load ptr, ptr %5, align 8, !tbaa !99
  %26 = getelementptr inbounds nuw %struct._internal_name_mapper_state, ptr %25, i32 0, i32 0
  %27 = load ptr, ptr %26, align 8, !tbaa !81
  %28 = load ptr, ptr %6, align 8, !tbaa !14
  %29 = call i32 @PySet_Add(ptr noundef %27, ptr noundef %28)
  %30 = icmp ne i32 %29, 0
  br i1 %30, label %31, label %34

31:                                               ; preds = %24
  %32 = load ptr, ptr %5, align 8, !tbaa !99
  %33 = getelementptr inbounds nuw %struct._internal_name_mapper_state, ptr %32, i32 0, i32 1
  store i32 1, ptr %33, align 8, !tbaa !83
  br label %34

34:                                               ; preds = %31, %24
  %35 = load ptr, ptr %6, align 8, !tbaa !14
  call void @Py_DECREF(ptr noundef %35)
  br label %36

36:                                               ; preds = %34, %21
  store i32 0, ptr %7, align 4
  br label %37

37:                                               ; preds = %36, %15
  call void @llvm.lifetime.end.p0(i64 8, ptr %6) #9
  call void @llvm.lifetime.end.p0(i64 8, ptr %5) #9
  %38 = load i32, ptr %7, align 4
  switch i32 %38, label %40 [
    i32 0, label %39
    i32 1, label %39
  ]

39:                                               ; preds = %37, %37
  ret void

40:                                               ; preds = %37
  unreachable
}