; Function Attrs: nounwind uwtable
define internal void @_openssl_hash_name_mapper(ptr noundef %0, ptr noundef captures(none) %1) #0 {
  %3 = icmp eq ptr %0, null
  br i1 %3, label %Py_DECREF.exit, label %4

4:                                                ; preds = %2
  %5 = tail call i32 @EVP_MD_get_type(ptr noundef nonnull %0) #9
  %6 = icmp eq i32 %5, 0
  br i1 %6, label %Py_DECREF.exit, label %7

7:                                                ; preds = %4
  %8 = tail call i32 @EVP_MD_get_type(ptr noundef nonnull %0) #9
  %9 = icmp eq i32 %8, 4
  br i1 %9, label %py_digest_name.exit, label %.lr.ph

.lr.ph:                                           ; preds = %7, %12
  %.015.i13 = phi ptr [ %10, %12 ], [ @py_hashes, %7 ]
  %10 = getelementptr i8, ptr %.015.i13, i64 48
  %11 = load ptr, ptr %10, align 8, !tbaa !13
  %.not.i11 = icmp eq ptr %11, null
  br i1 %.not.i11, label %16, label %12, !llvm.loop !18

12:                                               ; preds = %.lr.ph
  %13 = getelementptr i8, ptr %.015.i13, i64 72
  %14 = load i32, ptr %13, align 8, !tbaa !20
  %15 = icmp eq i32 %14, %8
  br i1 %15, label %py_digest_name.exit, label %.lr.ph, !llvm.loop !18

16:                                               ; preds = %.lr.ph
  %17 = tail call ptr @OBJ_nid2ln(i32 noundef %8) #9
  %18 = icmp eq ptr %17, null
  br i1 %18, label %19, label %py_digest_name.exit

19:                                               ; preds = %16
  %20 = tail call ptr @OBJ_nid2sn(i32 noundef %8) #9
  br label %py_digest_name.exit

py_digest_name.exit:                              ; preds = %12, %7, %16, %19
  %.1.i = phi ptr [ %20, %19 ], [ %17, %16 ], [ @.str.3, %7 ], [ %11, %12 ]
  %21 = tail call ptr @PyUnicode_FromString(ptr noundef %.1.i) #9
  %22 = icmp eq ptr %21, null
  br i1 %22, label %23, label %25

23:                                               ; preds = %py_digest_name.exit
  %24 = getelementptr inbounds nuw i8, ptr %1, i64 8
  store i32 1, ptr %24, align 8, !tbaa !73
  br label %Py_DECREF.exit

25:                                               ; preds = %py_digest_name.exit
  %26 = load ptr, ptr %1, align 8, !tbaa !71
  %27 = tail call i32 @PySet_Add(ptr noundef %26, ptr noundef nonnull %21) #9
  %.not = icmp eq i32 %27, 0
  br i1 %.not, label %30, label %28

28:                                               ; preds = %25
  %29 = getelementptr inbounds nuw i8, ptr %1, i64 8
  store i32 1, ptr %29, align 8, !tbaa !73
  br label %30

30:                                               ; preds = %28, %25
  %31 = load i32, ptr %21, align 8, !tbaa !21
  %.not.i = icmp sgt i32 %31, -1
  br i1 %.not.i, label %32, label %Py_DECREF.exit

32:                                               ; preds = %30
  %33 = add nsw i32 %31, -1
  store i32 %33, ptr %21, align 8, !tbaa !21
  %34 = icmp eq i32 %33, 0
  br i1 %34, label %35, label %Py_DECREF.exit

35:                                               ; preds = %32
  tail call void @_Py_Dealloc(ptr noundef nonnull %21) #9
  br label %Py_DECREF.exit

Py_DECREF.exit:                                   ; preds = %35, %32, %30, %23, %2, %4
  ret void
}